target datalayout = "e-m:e-p270:32:32-p271:32:32-p272:64:64-i64:64-i128:128-f80:128-n8:16:32:64-S128"
target triple = "x86_64-pc-linux-gnu"

%struct.IDAMemRec = type { double, ptr, ptr, i32, double, double, ptr, i32, ptr, ptr, i32, ptr, ptr, i32, i32, double, double, ptr, i32, i32, i32, ptr, ptr, i32, ptr, ptr, ptr, i32, double, i32, i32, double, ptr, ptr, i32, ptr, ptr, i32, i32, i32, double, ptr, ptr, [6 x ptr], [6 x double], [6 x double], [6 x double], [6 x double], [6 x double], ptr, ptr, ptr, ptr, ptr, ptr, ptr, ptr, ptr, ptr, ptr, ptr, ptr, ptr, ptr, [6 x ptr], ptr, ptr, ptr, ptr, [6 x ptr], ptr, ptr, ptr, ptr, ptr, ptr, ptr, ptr, ptr, ptr, ptr, ptr, ptr, ptr, [6 x ptr], ptr, ptr, ptr, ptr, ptr, double, ptr, ptr, i32, i32, i32, i32, i32, i32, i32, double, double, double, i32, double, i32, i32, i32, i32, double, double, double, double, double, double, double, double, double, double, double, double, double, double, i32, i32, i32, i32, i32, i64, double, i32, i64, i64, i64, i64, i64, i64, i64, i64, i64, i64, i64, i64, i64, i64, i64, i64, i64, i64, i64, i64, i64, i64, i64, i64, ptr, ptr, ptr, i32, i32, i32, i32, i32, i32, i32, i32, i32, i32, i32, i32, i32, ptr, ptr, ptr, ptr, ptr, ptr, i32, i32, i32, i32, i32, i32, double, double, double, ptr, i32, ptr, ptr, double, double, double, ptr, ptr, ptr, double, double, i32, i32, i64, ptr, i32, i32, ptr, i32 }

@.str = private unnamed_addr constant [5 x i8] c"IDAS\00", align 1
@.str.4 = private unnamed_addr constant [24 x i8] c"ida_mem = NULL illegal.\00", align 1
@.str.18 = private unnamed_addr constant [52 x i8] c"Illegal attempt to call before calling IDAQuadInit.\00", align 1
@.str.20 = private unnamed_addr constant [19 x i8] c"rtolQ < 0 illegal.\00", align 1
@.str.21 = private unnamed_addr constant [43 x i8] c"atolQ has negative component(s) (illegal).\00", align 1
@.str.22 = private unnamed_addr constant [20 x i8] c"IDAQuadSVtolerances\00", align 1
@.str.23 = private unnamed_addr constant [22 x i8] c"atolQ = NULL illegal.\00", align 1

; Function Attrs: nounwind uwtable
define i32 @IDAQuadSVtolerances(ptr noundef %0, double noundef %1, ptr noundef %2) #0 {
  %4 = alloca i32, align 4
  %5 = alloca ptr, align 8
  %6 = alloca double, align 8
  %7 = alloca ptr, align 8
  %8 = alloca ptr, align 8
  %9 = alloca i32, align 4
  store ptr %0, ptr %5, align 8, !tbaa !91
  store double %1, ptr %6, align 8, !tbaa !92
  store ptr %2, ptr %7, align 8, !tbaa !93
  call void @llvm.lifetime.start.p0(i64 8, ptr %8) #8
  %10 = load ptr, ptr %5, align 8, !tbaa !91
  %11 = icmp eq ptr %10, null
  br i1 %11, label %12, label %13

12:                                               ; preds = %3
  call void (ptr, i32, ptr, ptr, ptr, ...) @IDAProcessError(ptr noundef null, i32 noundef -20, ptr noundef @.str, ptr noundef @.str.22, ptr noundef @.str.4)
  store i32 -20, ptr %4, align 4
  store i32 1, ptr %9, align 4
  br label %73

13:                                               ; preds = %3
  %14 = load ptr, ptr %5, align 8, !tbaa !91
  store ptr %14, ptr %8, align 8, !tbaa !3
  %15 = load ptr, ptr %8, align 8, !tbaa !3
  %16 = getelementptr inbounds nuw %struct.IDAMemRec, ptr %15, i32 0, i32 164
  %17 = load i32, ptr %16, align 8, !tbaa !80
  %18 = icmp eq i32 %17, 0
  br i1 %18, label %19, label %21

19:                                               ; preds = %13
  %20 = load ptr, ptr %8, align 8, !tbaa !3
  call void (ptr, i32, ptr, ptr, ptr, ...) @IDAProcessError(ptr noundef %20, i32 noundef -30, ptr noundef @.str, ptr noundef @.str.22, ptr noundef @.str.18)
  store i32 -30, ptr %4, align 4
  store i32 1, ptr %9, align 4
  br label %73

21:                                               ; preds = %13
  %22 = load double, ptr %6, align 8, !tbaa !92
  %23 = fcmp olt double %22, 0.000000e+00
  br i1 %23, label %24, label %26

24:                                               ; preds = %21
  %25 = load ptr, ptr %8, align 8, !tbaa !3
  call void (ptr, i32, ptr, ptr, ptr, ...) @IDAProcessError(ptr noundef %25, i32 noundef -22, ptr noundef @.str, ptr noundef @.str.22, ptr noundef @.str.20)
  store i32 -22, ptr %4, align 4
  store i32 1, ptr %9, align 4
  br label %73

26:                                               ; preds = %21
  %27 = load ptr, ptr %7, align 8, !tbaa !93
  %28 = icmp eq ptr %27, null
  br i1 %28, label %29, label %31

29:                                               ; preds = %26
  %30 = load ptr, ptr %8, align 8, !tbaa !3
  call void (ptr, i32, ptr, ptr, ptr, ...) @IDAProcessError(ptr noundef %30, i32 noundef -22, ptr noundef @.str, ptr noundef @.str.22, ptr noundef @.str.23)
  store i32 -22, ptr %4, align 4
  store i32 1, ptr %9, align 4
  br label %73

31:                                               ; preds = %26
  %32 = load ptr, ptr %7, align 8, !tbaa !93
  %33 = call double @N_VMin(ptr noundef %32)
  %34 = fcmp olt double %33, 0.000000e+00
  br i1 %34, label %35, label %37

35:                                               ; preds = %31
  %36 = load ptr, ptr %8, align 8, !tbaa !3
  call void (ptr, i32, ptr, ptr, ptr, ...) @IDAProcessError(ptr noundef %36, i32 noundef -22, ptr noundef @.str, ptr noundef @.str.22, ptr noundef @.str.21)
  store i32 -22, ptr %4, align 4
  store i32 1, ptr %9, align 4
  br label %73

37:                                               ; preds = %31
  %38 = load ptr, ptr %8, align 8, !tbaa !3
  %39 = getelementptr inbounds nuw %struct.IDAMemRec, ptr %38, i32 0, i32 14
  store i32 2, ptr %39, align 4, !tbaa !52
  %40 = load double, ptr %6, align 8, !tbaa !92
  %41 = load ptr, ptr %8, align 8, !tbaa !3
  %42 = getelementptr inbounds nuw %struct.IDAMemRec, ptr %41, i32 0, i32 15
  store double %40, ptr %42, align 8, !tbaa !170
  %43 = load ptr, ptr %8, align 8, !tbaa !3
  %44 = getelementptr inbounds nuw %struct.IDAMemRec, ptr %43, i32 0, i32 163
  %45 = load i32, ptr %44, align 4, !tbaa !79
  %46 = icmp eq i32 0, %45
  br i1 %46, label %47, label %68

47:                                               ; preds = %37
  %48 = load ptr, ptr %7, align 8, !tbaa !93
  %49 = call ptr @N_VClone(ptr noundef %48)
  %50 = load ptr, ptr %8, align 8, !tbaa !3
  %51 = getelementptr inbounds nuw %struct.IDAMemRec, ptr %50, i32 0, i32 17
  store ptr %49, ptr %51, align 8, !tbaa !172
  %52 = load ptr, ptr %8, align 8, !tbaa !3
  %53 = getelementptr inbounds nuw %struct.IDAMemRec, ptr %52, i32 0, i32 151
  %54 = load i64, ptr %53, align 8, !tbaa !158
  %55 = load ptr, ptr %8, align 8, !tbaa !3
  %56 = getelementptr inbounds nuw %struct.IDAMemRec, ptr %55, i32 0, i32 153
  %57 = load i64, ptr %56, align 8, !tbaa !73
  %58 = add nsw i64 %57, %54
  store i64 %58, ptr %56, align 8, !tbaa !73
  %59 = load ptr, ptr %8, align 8, !tbaa !3
  %60 = getelementptr inbounds nuw %struct.IDAMemRec, ptr %59, i32 0, i32 152
  %61 = load i64, ptr %60, align 8, !tbaa !159
  %62 = load ptr, ptr %8, align 8, !tbaa !3
  %63 = getelementptr inbounds nuw %struct.IDAMemRec, ptr %62, i32 0, i32 154
  %64 = load i64, ptr %63, align 8, !tbaa !74
  %65 = add nsw i64 %64, %61
  store i64 %65, ptr %63, align 8, !tbaa !74
  %66 = load ptr, ptr %8, align 8, !tbaa !3
  %67 = getelementptr inbounds nuw %struct.IDAMemRec, ptr %66, i32 0, i32 163
  store i32 1, ptr %67, align 4, !tbaa !79
  br label %68

68:                                               ; preds = %47, %37
  %69 = load ptr, ptr %7, align 8, !tbaa !93
  %70 = load ptr, ptr %8, align 8, !tbaa !3
  %71 = getelementptr inbounds nuw %struct.IDAMemRec, ptr %70, i32 0, i32 17
  %72 = load ptr, ptr %71, align 8, !tbaa !172
  call void @N_VScale(double noundef 1.000000e+00, ptr noundef %69, ptr noundef %72)
  store i32 0, ptr %4, align 4
  store i32 1, ptr %9, align 4
  br label %73

73:                                               ; preds = %68, %35, %29, %24, %19, %12
  call void @llvm.lifetime.end.p0(i64 8, ptr %8) #8
  %74 = load i32, ptr %4, align 4
  ret i32 %74
}