; Function Attrs: nounwind uwtable
define range(i32 -30, 1) i32 @IDAQuadSVtolerances(ptr noundef captures(address_is_null) %0, double noundef %1, ptr noundef %2) local_unnamed_addr #0 {
  %4 = icmp eq ptr %0, null
  br i1 %4, label %5, label %6

5:                                                ; preds = %3
  tail call void (ptr, i32, ptr, ptr, ptr, ...) @IDAProcessError(ptr noundef null, i32 noundef -20, ptr noundef nonnull @.str, ptr noundef nonnull @.str.22, ptr noundef nonnull @.str.4)
  br label %42

6:                                                ; preds = %3
  %7 = getelementptr inbounds nuw i8, ptr %0, i64 1560
  %8 = load i32, ptr %7, align 8, !tbaa !133
  %9 = icmp eq i32 %8, 0
  br i1 %9, label %10, label %11

10:                                               ; preds = %6
  tail call void (ptr, i32, ptr, ptr, ptr, ...) @IDAProcessError(ptr noundef nonnull %0, i32 noundef -30, ptr noundef nonnull @.str, ptr noundef nonnull @.str.22, ptr noundef nonnull @.str.18)
  br label %42

11:                                               ; preds = %6
  %12 = fcmp olt double %1, 0.000000e+00
  br i1 %12, label %13, label %14

13:                                               ; preds = %11
  tail call void (ptr, i32, ptr, ptr, ptr, ...) @IDAProcessError(ptr noundef nonnull %0, i32 noundef -22, ptr noundef nonnull @.str, ptr noundef nonnull @.str.22, ptr noundef nonnull @.str.20)
  br label %42

14:                                               ; preds = %11
  %15 = icmp eq ptr %2, null
  br i1 %15, label %16, label %17

16:                                               ; preds = %14
  tail call void (ptr, i32, ptr, ptr, ptr, ...) @IDAProcessError(ptr noundef nonnull %0, i32 noundef -22, ptr noundef nonnull @.str, ptr noundef nonnull @.str.22, ptr noundef nonnull @.str.23)
  br label %42

17:                                               ; preds = %14
  %18 = tail call double @N_VMin(ptr noundef nonnull %2) #13
  %19 = fcmp olt double %18, 0.000000e+00
  br i1 %19, label %20, label %21

20:                                               ; preds = %17
  tail call void (ptr, i32, ptr, ptr, ptr, ...) @IDAProcessError(ptr noundef nonnull %0, i32 noundef -22, ptr noundef nonnull @.str, ptr noundef nonnull @.str.22, ptr noundef nonnull @.str.21)
  br label %42

21:                                               ; preds = %17
  %22 = getelementptr inbounds nuw i8, ptr %0, i64 108
  store i32 2, ptr %22, align 4, !tbaa !36
  %23 = getelementptr inbounds nuw i8, ptr %0, i64 112
  store double %1, ptr %23, align 8, !tbaa !135
  %24 = getelementptr inbounds nuw i8, ptr %0, i64 1556
  %25 = load i32, ptr %24, align 4, !tbaa !137
  %26 = icmp eq i32 %25, 0
  br i1 %26, label %27, label %._crit_edge

._crit_edge:                                      ; preds = %21
  %.phi.trans.insert = getelementptr inbounds nuw i8, ptr %0, i64 128
  %.pre = load ptr, ptr %.phi.trans.insert, align 8, !tbaa !138
  br label %40

27:                                               ; preds = %21
  %28 = tail call ptr @N_VClone(ptr noundef nonnull %2) #13
  %29 = getelementptr inbounds nuw i8, ptr %0, i64 128
  store ptr %28, ptr %29, align 8, !tbaa !138
  %30 = getelementptr inbounds nuw i8, ptr %0, i64 1480
  %31 = load i64, ptr %30, align 8, !tbaa !122
  %32 = getelementptr inbounds nuw i8, ptr %0, i64 1496
  %33 = load i64, ptr %32, align 8, !tbaa !54
  %34 = add nsw i64 %33, %31
  store i64 %34, ptr %32, align 8, !tbaa !54
  %35 = getelementptr inbounds nuw i8, ptr %0, i64 1488
  %36 = load i64, ptr %35, align 8, !tbaa !123
  %37 = getelementptr inbounds nuw i8, ptr %0, i64 1504
  %38 = load i64, ptr %37, align 8, !tbaa !55
  %39 = add nsw i64 %38, %36
  store i64 %39, ptr %37, align 8, !tbaa !55
  store i32 1, ptr %24, align 4, !tbaa !137
  br label %40

40:                                               ; preds = %._crit_edge, %27
  %41 = phi ptr [ %.pre, %._crit_edge ], [ %28, %27 ]
  tail call void @N_VScale(double noundef 1.000000e+00, ptr noundef nonnull %2, ptr noundef %41) #13
  br label %42

42:                                               ; preds = %40, %20, %16, %13, %10, %5
  %.0 = phi i32 [ -20, %5 ], [ -30, %10 ], [ -22, %13 ], [ -22, %16 ], [ -22, %20 ], [ 0, %40 ]
  ret i32 %.0
}